Certificate:
    Data:
        Version: 3 (0x2)
        Serial Number: 1 (0x1)
        Signature Algorithm: sha256WithRSAEncryption
        Issuer: CN=QUIC Server Root CA
        Validity
            Not Before: Jan 21 11:31:09 2025 GMT
            Not After : Feb 20 11:31:09 2025 GMT
        Subject: C=US, ST=California, L=Mountain View, O=QUIC Server, CN=127.0.0.1
        Subject Public Key Info:
            Public Key Algorithm: rsaEncryption
                Public-Key: (2048 bit)
                Modulus:
                    00:d8:12:90:0f:ab:9d:69:b3:fe:5f:6d:6b:77:e2:
                    c7:86:99:ab:98:94:9f:d2:21:82:9e:55:9c:0f:35:
                    21:a1:cd:e6:ce:67:21:f6:c1:f2:b8:f8:9f:06:93:
                    9b:5c:00:66:d8:55:f5:f1:66:b5:2c:41:26:30:e0:
                    db:80:68:12:4e:a2:27:8d:26:7c:4f:cb:24:28:1e:
                    44:d2:2d:c0:a0:b8:f2:ed:ed:7e:ae:c2:a4:5f:93:
                    3d:f8:5e:32:d2:c7:30:be:d5:aa:25:2e:69:2e:e3:
                    73:08:8f:3f:53:69:06:3c:65:79:4a:51:49:54:c1:
                    17:2e:4b:de:58:fa:37:d8:74:8c:bf:38:be:9d:37:
                    95:3e:0f:60:a5:16:ab:88:64:e7:90:44:cc:9c:35:
                    08:18:d1:a0:33:c3:0d:8d:df:94:76:2b:48:8a:1d:
                    62:44:a9:cb:94:33:58:01:58:fb:b7:4a:fd:7d:03:
                    63:e9:03:97:36:1a:c2:fc:70:a7:6d:7e:bc:8f:69:
                    95:cc:a0:1d:83:26:91:f1:15:27:35:4d:2f:b8:1e:
                    df:51:66:9e:10:a1:49:ab:4d:79:5b:4e:ab:e7:59:
                    85:74:6e:3b:68:c5:16:46:5c:70:90:ed:77:0b:f9:
                    5e:25:1d:3c:1f:f5:f2:c9:eb:97:f4:65:a3:71:39:
                    59:77
                Exponent: 65537 (0x10001)
        X509v3 extensions:
            X509v3 Basic Constraints: critical
                CA:FALSE
            X509v3 Subject Key Identifier: 
                4B:1D:16:A3:3D:68:85:D0:61:6D:25:51:F4:D1:11:FF:E6:33:CA:E7
            X509v3 Authority Key Identifier: 
                16:F9:70:4D:BE:2A:71:13:C0:55:AE:35:3F:30:64:ED:15:C3:84:D0
            X509v3 Extended Key Usage: 
                TLS Web Server Authentication, TLS Web Client Authentication
            X509v3 Subject Alternative Name: 
                DNS:www.example.org, DNS:mail.example.org, DNS:mail.example.com, IP Address:127.0.0.1
    Signature Algorithm: sha256WithRSAEncryption
    Signature Value:
        97:1b:e4:96:c3:7e:14:6c:b0:ac:03:97:52:f1:3e:0f:76:32:
        a6:13:eb:67:d8:61:07:bb:a3:ba:d8:1c:61:06:d6:b4:cf:a3:
        cc:8d:14:80:3b:e6:57:fe:45:31:e4:f2:41:e5:51:be:4b:fa:
        0f:2b:47:7c:f0:65:4f:36:d0:81:33:86:b2:01:3f:e7:6a:bd:
        d0:68:14:eb:b8:14:4a:60:e9:96:e4:3f:9c:c3:ee:08:72:9e:
        30:66:2d:6e:80:fa:28:f2:34:55:63:b3:fb:20:99:92:58:07:
        5f:55:36:fd:3e:7d:1d:f8:70:90:43:6d:e0:68:30:f3:21:d3:
        68:18:9f:97:56:be:ae:bd:ce:3d:e3:d2:ea:56:05:cc:ba:bd:
        e4:0d:b0:41:52:ba:b5:2b:b0:f9:2d:49:24:bc:18:31:de:63:
        38:fe:ff:fc:38:c8:b7:d5:9d:e5:13:f0:b2:fe:45:37:5e:bf:
        41:9e:19:24:ff:f1:dc:2d:38:15:43:c1:c7:fe:cc:69:29:b3:
        6a:48:df:11:36:07:14:60:c6:9a:2d:db:55:3d:fc:46:84:51:
        21:ad:d9:cb:e8:6c:38:5e:c1:66:41:5f:6e:12:cb:74:f6:ee:
        cc:06:91:64:19:2c:36:09:bf:ed:a7:d5:c1:01:93:78:e1:58:
        57:dd:3f:70
-----BEGIN CERTIFICATE-----
MIIDtDCCApygAwIBAgIBATANBgkqhkiG9w0BAQsFADAeMRwwGgYDVQQDDBNRVUlD
IFNlcnZlciBSb290IENBMB4XDTI1MDEyMTExMzEwOVoXDTI1MDIyMDExMzEwOVow
ZDELMAkGA1UEBhMCVVMxEzARBgNVBAgMCkNhbGlmb3JuaWExFjAUBgNVBAcMDU1v
dW50YWluIFZpZXcxFDASBgNVBAoMC1FVSUMgU2VydmVyMRIwEAYDVQQDDAkxMjcu
MC4wLjEwggEiMA0GCSqGSIb3DQEBAQUAA4IBDwAwggEKAoIBAQDYEpAPq51ps/5f
bWt34seGmauYlJ/SIYKeVZwPNSGhzebOZyH2wfK4+J8Gk5tcAGbYVfXxZrUsQSYw
4NuAaBJOoieNJnxPyyQoHkTSLcCguPLt7X6uwqRfkz34XjLSxzC+1aolLmku43MI
jz9TaQY8ZXlKUUlUwRcuS95Y+jfYdIy/OL6dN5U+D2ClFquIZOeQRMycNQgY0aAz
ww2N35R2K0iKHWJEqcuUM1gBWPu3Sv19A2PpA5c2GsL8cKdtfryPaZXMoB2DJpHx
FSc1TS+4Ht9RZp4QoUmrTXlbTqvnWYV0bjtoxRZGXHCQ7XcL+V4lHTwf9fLJ65f0
ZaNxOVl3AgMBAAGjgbYwgbMwDAYDVR0TAQH/BAIwADAdBgNVHQ4EFgQUSx0Woz1o
hdBhbSVR9NER/+YzyucwHwYDVR0jBBgwFoAUFvlwTb4qcRPAVa41PzBk7RXDhNAw
HQYDVR0lBBYwFAYIKwYBBQUHAwEGCCsGAQUFBwMCMEQGA1UdEQQ9MDuCD3d3dy5l
eGFtcGxlLm9yZ4IQbWFpbC5leGFtcGxlLm9yZ4IQbWFpbC5leGFtcGxlLmNvbYcE
fwAAATANBgkqhkiG9w0BAQsFAAOCAQEAlxvklsN+FGywrAOXUvE+D3YyphPrZ9hh
B7ujutgcYQbWtM+jzI0UgDvmV/5FMeTyQeVRvkv6DytHfPBlTzbQgTOGsgE/52q9
0GgU67gUSmDpluQ/nMPuCHKeMGYtboD6KPI0VWOz+yCZklgHX1U2/T59HfhwkENt
4Ggw8yHTaBifl1a+rr3OPePS6lYFzLq95A2wQVK6tSuw+S1JJLwYMd5jOP7//DjI
t9Wd5RPwsv5FN16/QZ4ZJP/x3C04FUPBx/7MaSmzakjfETYHFGDGmi3bVT38RoRR
Ia3Zy+hsOF7BZkFfbhLLdPbuzAaRZBksNgm/7afVwQGTeOFYV90/cA==
-----END CERTIFICATE-----
