Certificate:
    Data:
        Version: 3 (0x2)
        Serial Number:
            14:b4:8b:aa:70:f5:25:77:8d:7f:d3:ab:39:36:3a:0f:6b:81:22:85
        Signature Algorithm: sha256WithRSAEncryption
        Issuer: CN = QUIC Server Root CA
        Validity
            Not Before: Jan 21 11:31:09 2025 GMT
            Not After : Feb 20 11:31:09 2025 GMT
        Subject: CN = QUIC Server Root CA
        Subject Public Key Info:
            Public Key Algorithm: rsaEncryption
                Public-Key: (2048 bit)
                Modulus:
                    00:a0:4b:10:e5:bc:a5:19:ec:3a:d2:b4:89:70:cc:
                    49:5a:f7:57:2d:01:2c:d8:46:4a:bb:ac:e5:cc:f4:
                    90:cb:d2:4a:74:27:c5:43:b4:ca:7e:37:12:64:58:
                    fd:6e:a3:8f:ce:f9:84:1c:b1:7a:48:60:be:f7:5b:
                    5b:5f:38:64:b6:fb:d8:5d:86:a1:4a:60:48:0f:39:
                    48:20:29:47:d9:e7:c6:d3:04:50:a7:70:ee:82:7d:
                    c6:fd:71:03:e7:61:a3:d7:6a:09:c7:90:55:f1:cc:
                    6d:5f:12:68:04:1b:b2:12:f7:0a:8b:1d:d5:12:b7:
                    e0:c8:8d:40:52:fe:8e:ec:2d:1f:ab:0c:a8:65:f6:
                    24:32:df:88:20:3e:eb:75:eb:a1:99:72:b7:b7:47:
                    7b:09:8a:3a:c9:f7:f5:95:84:71:34:df:82:73:cf:
                    81:da:12:a9:e0:fc:60:9e:fb:e2:4b:63:fa:b8:ed:
                    33:9b:50:92:87:40:43:df:bc:fa:6b:60:49:39:75:
                    19:dd:64:2b:e7:61:62:03:c5:23:34:7c:aa:85:98:
                    46:2b:7e:05:b7:5c:2c:13:4c:d2:de:16:81:d4:b5:
                    ef:75:00:06:a5:a2:db:17:32:2c:15:41:dc:5c:7f:
                    9d:cf:d8:5d:eb:8c:77:50:57:47:12:82:8e:ea:c9:
                    a5:cd
                Exponent: 65537 (0x10001)
        X509v3 extensions:
            X509v3 Basic Constraints: critical
                CA:TRUE
            X509v3 Subject Key Identifier: 
                16:F9:70:4D:BE:2A:71:13:C0:55:AE:35:3F:30:64:ED:15:C3:84:D0
            X509v3 Key Usage: critical
                Certificate Sign, CRL Sign
    Signature Algorithm: sha256WithRSAEncryption
    Signature Value:
        69:38:b8:c4:b1:ba:77:68:a8:9c:bd:a6:e4:e4:59:95:9e:66:
        c0:b6:ed:8b:c3:51:47:40:21:db:70:c8:08:9c:24:6a:e2:1f:
        f4:b3:eb:58:f7:4c:c6:77:36:02:5c:9a:5d:d1:50:96:01:86:
        64:c8:b1:8d:cc:a3:72:6f:7d:28:e1:bb:ea:2d:c0:23:a1:2d:
        75:fe:cd:bf:8f:da:81:da:90:9c:5d:4a:4e:63:a1:71:d8:41:
        48:77:fb:d0:1d:8a:75:da:1a:9c:95:7e:77:30:cf:50:c0:20:
        ca:39:07:c9:50:80:24:56:29:94:e0:af:cb:6d:28:64:22:f6:
        d2:ea:2b:04:c9:a5:2e:bb:99:f5:15:0c:9a:b9:70:d6:6e:df:
        fd:2e:1d:a9:da:a1:e4:97:f8:69:f7:d0:ef:19:d5:04:a5:bc:
        72:78:f7:97:3f:26:e6:62:f2:f3:f3:0d:1c:5d:b3:0c:1b:16:
        81:16:fe:06:1f:6c:a0:78:74:56:c0:45:45:4d:25:aa:89:de:
        5b:5e:27:67:70:e4:d6:22:06:10:22:c1:2d:c6:45:a1:e5:d6:
        37:0f:ea:f1:fb:48:03:58:f5:c7:c1:ef:f6:1b:4d:2a:dc:f0:
        a7:2e:60:a8:13:e3:14:c0:84:4c:70:6a:17:7e:f2:1b:46:7c:
        6d:42:d6:63
-----BEGIN CERTIFICATE-----
MIIDDDCCAfSgAwIBAgIUFLSLqnD1JXeNf9OrOTY6D2uBIoUwDQYJKoZIhvcNAQEL
BQAwHjEcMBoGA1UEAwwTUVVJQyBTZXJ2ZXIgUm9vdCBDQTAeFw0yNTAxMjExMTMx
MDlaFw0yNTAyMjAxMTMxMDlaMB4xHDAaBgNVBAMME1FVSUMgU2VydmVyIFJvb3Qg
Q0EwggEiMA0GCSqGSIb3DQEBAQUAA4IBDwAwggEKAoIBAQCgSxDlvKUZ7DrStIlw
zEla91ctASzYRkq7rOXM9JDL0kp0J8VDtMp+NxJkWP1uo4/O+YQcsXpIYL73W1tf
OGS2+9hdhqFKYEgPOUggKUfZ58bTBFCncO6Cfcb9cQPnYaPXagnHkFXxzG1fEmgE
G7IS9wqLHdUSt+DIjUBS/o7sLR+rDKhl9iQy34ggPut166GZcre3R3sJijrJ9/WV
hHE034Jzz4HaEqng/GCe++JLY/q47TObUJKHQEPfvPprYEk5dRndZCvnYWIDxSM0
fKqFmEYrfgW3XCwTTNLeFoHUte91AAalotsXMiwVQdxcf53P2F3rjHdQV0cSgo7q
yaXNAgMBAAGjQjBAMA8GA1UdEwEB/wQFMAMBAf8wHQYDVR0OBBYEFBb5cE2+KnET
wFWuNT8wZO0Vw4TQMA4GA1UdDwEB/wQEAwIBBjANBgkqhkiG9w0BAQsFAAOCAQEA
aTi4xLG6d2ionL2m5ORZlZ5mwLbti8NRR0Ah23DICJwkauIf9LPrWPdMxnc2Alya
XdFQlgGGZMixjcyjcm99KOG76i3AI6Etdf7Nv4/agdqQnF1KTmOhcdhBSHf70B2K
ddoanJV+dzDPUMAgyjkHyVCAJFYplOCvy20oZCL20uorBMmlLruZ9RUMmrlw1m7f
/S4dqdqh5Jf4affQ7xnVBKW8cnj3lz8m5mLy8/MNHF2zDBsWgRb+Bh9soHh0VsBF
RU0lqoneW14nZ3Dk1iIGECLBLcZFoeXWNw/q8ftIA1j1x8Hv9htNKtzwpy5gqBPj
FMCETHBqF37yG0Z8bULWYw==
-----END CERTIFICATE-----
